---
triple:          'arm64-apple-darwin'
binary-path:     '/Users/tskopen/Game/Speedjam9/main'
relocations:
  - { offsetInCU: 0xE642, offset: 0xE642, size: 0x8, addend: 0x0, symName: __ZNSt3__119__libcpp_deallocateB8ue170006EPvmm, symObjAddr: 0x404, symBinAddr: 0x100003CA4, symSize: 0x60 }
  - { offsetInCU: 0xE6A7, offset: 0xE6A7, size: 0x8, addend: 0x0, symName: __ZNSt3__124__is_overaligned_for_newB8ue170006Em, symObjAddr: 0x470, symBinAddr: 0x100003D10, symSize: 0x20 }
  - { offsetInCU: 0xE6D5, offset: 0xE6D5, size: 0x8, addend: 0x0, symName: __ZNSt3__127__do_deallocate_handle_sizeB8ue170006IJSt11align_val_tEEEvPvmDpT_, symObjAddr: 0x490, symBinAddr: 0x100003D30, symSize: 0x30 }
  - { offsetInCU: 0xE728, offset: 0xE728, size: 0x8, addend: 0x0, symName: __ZNSt3__127__do_deallocate_handle_sizeB8ue170006IJEEEvPvmDpT_, symObjAddr: 0x4C0, symBinAddr: 0x100003D60, symSize: 0x28 }
  - { offsetInCU: 0xE766, offset: 0xE766, size: 0x8, addend: 0x0, symName: __ZNSt3__124__libcpp_operator_deleteB8ue170006IJPvSt11align_val_tEEEvDpT_, symObjAddr: 0x4E8, symBinAddr: 0x100003D88, symSize: 0x2C }
  - { offsetInCU: 0xE7AF, offset: 0xE7AF, size: 0x8, addend: 0x0, symName: __ZNSt3__124__libcpp_operator_deleteB8ue170006IJPvEEEvDpT_, symObjAddr: 0x514, symBinAddr: 0x100003DB4, symSize: 0x24 }
  - { offsetInCU: 0x1220A, offset: 0x1220A, size: 0x8, addend: 0x0, symName: _main, symObjAddr: 0x0, symBinAddr: 0x1000038A0, symSize: 0x144 }
  - { offsetInCU: 0x12234, offset: 0x12234, size: 0x8, addend: 0x0, symName: __ZN2sf7Vector2IjEC1Ejj, symObjAddr: 0x144, symBinAddr: 0x1000039E4, symSize: 0x3C }
  - { offsetInCU: 0x126F4, offset: 0x126F4, size: 0x8, addend: 0x0, symName: __ZN2sf6StringD1Ev, symObjAddr: 0x180, symBinAddr: 0x100003A20, symSize: 0x2C }
  - { offsetInCU: 0x12720, offset: 0x12720, size: 0x8, addend: 0x0, symName: __ZN2sf7Vector2IjEC2Ejj, symObjAddr: 0x1AC, symBinAddr: 0x100003A4C, symSize: 0x2C }
  - { offsetInCU: 0x1276A, offset: 0x1276A, size: 0x8, addend: 0x0, symName: __ZN2sf6StringD2Ev, symObjAddr: 0x1D8, symBinAddr: 0x100003A78, symSize: 0x2C }
  - { offsetInCU: 0x12796, offset: 0x12796, size: 0x8, addend: 0x0, symName: __ZNSt3__112basic_stringIDiNS_11char_traitsIDiEENS_9allocatorIDiEEED1Ev, symObjAddr: 0x204, symBinAddr: 0x100003AA4, symSize: 0x2C }
  - { offsetInCU: 0x127C0, offset: 0x127C0, size: 0x8, addend: 0x0, symName: __ZNSt3__112basic_stringIDiNS_11char_traitsIDiEENS_9allocatorIDiEEED2Ev, symObjAddr: 0x230, symBinAddr: 0x100003AD0, symSize: 0x74 }
  - { offsetInCU: 0x127EA, offset: 0x127EA, size: 0x8, addend: 0x0, symName: __ZNKSt3__112basic_stringIDiNS_11char_traitsIDiEENS_9allocatorIDiEEE9__is_longB8ue170006Ev, symObjAddr: 0x2A4, symBinAddr: 0x100003B44, symSize: 0x38 }
  - { offsetInCU: 0x12810, offset: 0x12810, size: 0x8, addend: 0x0, symName: __ZNSt3__116allocator_traitsINS_9allocatorIDiEEE10deallocateB8ue170006ERS2_PDim, symObjAddr: 0x2DC, symBinAddr: 0x100003B7C, symSize: 0x34 }
  - { offsetInCU: 0x12852, offset: 0x12852, size: 0x8, addend: 0x0, symName: __ZNSt3__112basic_stringIDiNS_11char_traitsIDiEENS_9allocatorIDiEEE7__allocB8ue170006Ev, symObjAddr: 0x310, symBinAddr: 0x100003BB0, symSize: 0x24 }
  - { offsetInCU: 0x12878, offset: 0x12878, size: 0x8, addend: 0x0, symName: __ZNSt3__112basic_stringIDiNS_11char_traitsIDiEENS_9allocatorIDiEEE18__get_long_pointerB8ue170006Ev, symObjAddr: 0x334, symBinAddr: 0x100003BD4, symSize: 0x28 }
  - { offsetInCU: 0x1289E, offset: 0x1289E, size: 0x8, addend: 0x0, symName: __ZNKSt3__112basic_stringIDiNS_11char_traitsIDiEENS_9allocatorIDiEEE14__get_long_capB8ue170006Ev, symObjAddr: 0x35C, symBinAddr: 0x100003BFC, symSize: 0x30 }
  - { offsetInCU: 0x128C4, offset: 0x128C4, size: 0x8, addend: 0x0, symName: __ZNKSt3__117__compressed_pairINS_12basic_stringIDiNS_11char_traitsIDiEENS_9allocatorIDiEEE5__repES5_E5firstB8ue170006Ev, symObjAddr: 0x38C, symBinAddr: 0x100003C2C, symSize: 0x24 }
  - { offsetInCU: 0x128EA, offset: 0x128EA, size: 0x8, addend: 0x0, symName: __ZNKSt3__122__compressed_pair_elemINS_12basic_stringIDiNS_11char_traitsIDiEENS_9allocatorIDiEEE5__repELi0ELb0EE5__getB8ue170006Ev, symObjAddr: 0x3B0, symBinAddr: 0x100003C50, symSize: 0x14 }
  - { offsetInCU: 0x12910, offset: 0x12910, size: 0x8, addend: 0x0, symName: __ZNSt3__19allocatorIDiE10deallocateB8ue170006EPDim, symObjAddr: 0x3C4, symBinAddr: 0x100003C64, symSize: 0x40 }
  - { offsetInCU: 0x12954, offset: 0x12954, size: 0x8, addend: 0x0, symName: __ZNSt3__117__compressed_pairINS_12basic_stringIDiNS_11char_traitsIDiEENS_9allocatorIDiEEE5__repES5_E6secondB8ue170006Ev, symObjAddr: 0x538, symBinAddr: 0x100003DD8, symSize: 0x24 }
  - { offsetInCU: 0x1297A, offset: 0x1297A, size: 0x8, addend: 0x0, symName: __ZNSt3__122__compressed_pair_elemINS_9allocatorIDiEELi1ELb1EE5__getB8ue170006Ev, symObjAddr: 0x55C, symBinAddr: 0x100003DFC, symSize: 0x14 }
  - { offsetInCU: 0x129A0, offset: 0x129A0, size: 0x8, addend: 0x0, symName: __ZNSt3__117__compressed_pairINS_12basic_stringIDiNS_11char_traitsIDiEENS_9allocatorIDiEEE5__repES5_E5firstB8ue170006Ev, symObjAddr: 0x570, symBinAddr: 0x100003E10, symSize: 0x24 }
  - { offsetInCU: 0x129C6, offset: 0x129C6, size: 0x8, addend: 0x0, symName: __ZNSt3__122__compressed_pair_elemINS_12basic_stringIDiNS_11char_traitsIDiEENS_9allocatorIDiEEE5__repELi0ELb0EE5__getB8ue170006Ev, symObjAddr: 0x594, symBinAddr: 0x100003E34, symSize: 0x14 }
...
